target datalayout = "e-m:e-p270:32:32-p271:32:32-p272:64:64-i64:64-i128:128-f80:128-n8:16:32:64-S128"
target triple = "x86_64-unknown-linux-gnu"

%"class.std::__cxx11::basic_string" = type { %"struct.std::__cxx11::basic_string<char>::_Alloc_hider", i64, %union.anon }
%"struct.std::__cxx11::basic_string<char>::_Alloc_hider" = type { ptr }
%union.anon = type { i64, [8 x i8] }

@.str.1 = private unnamed_addr constant [25 x i8] c"Line: %i, column: %i, %s\00", align 1

; Function Attrs: mustprogress uwtable
define dso_local void @_ZN4base8internal10JSONParser18FormatErrorMessageEiiRKNSt7__cxx1112basic_stringIcSt11char_traitsIcESaIcEEE(ptr noalias sret(%"class.std::__cxx11::basic_string") align 8 %agg.result, i32 noundef %line, i32 noundef %column, ptr noundef nonnull align 8 dereferenceable(32) %description) #1 align 2 {
entry:
  %result.ptr = alloca ptr, align 8
  %line.addr = alloca i32, align 4
  %column.addr = alloca i32, align 4
  %description.addr = alloca ptr, align 8
  store ptr %agg.result, ptr %result.ptr, align 8
  store i32 %line, ptr %line.addr, align 4
  store i32 %column, ptr %column.addr, align 4
  store ptr %description, ptr %description.addr, align 8
  %0 = load i32, ptr %line.addr, align 4
  %tobool = icmp ne i32 %0, 0
  br i1 %tobool, label %if.then, label %lor.lhs.false

lor.lhs.false:                                    ; preds = %entry
  %1 = load i32, ptr %column.addr, align 4
  %tobool1 = icmp ne i32 %1, 0
  br i1 %tobool1, label %if.then, label %if.end

if.then:                                          ; preds = %lor.lhs.false, %entry
  %2 = load i32, ptr %line.addr, align 4
  %3 = load i32, ptr %column.addr, align 4
  %4 = load ptr, ptr %description.addr, align 8
  %call = call noundef ptr @_ZNKSt7__cxx1112basic_stringIcSt11char_traitsIcESaIcEE5c_strEv(ptr noundef nonnull align 8 dereferenceable(32) %4) #11
  call void (ptr, ptr, ...) @_ZN4base12StringPrintfB5cxx11EPKcz(ptr sret(%"class.std::__cxx11::basic_string") align 8 %agg.result, ptr noundef @.str.1, i32 noundef %2, i32 noundef %3, ptr noundef %call)
  br label %return

if.end:                                           ; preds = %lor.lhs.false
  %5 = load ptr, ptr %description.addr, align 8
  call void @_ZNSt7__cxx1112basic_stringIcSt11char_traitsIcESaIcEEC1ERKS4_(ptr noundef nonnull align 8 dereferenceable(32) %agg.result, ptr noundef nonnull align 8 dereferenceable(32) %5)
  br label %return

return:                                           ; preds = %if.end, %if.then
  ret void
}