; Function Attrs: mustprogress uwtable
define dso_local void @_ZN4base8internal10JSONParser18FormatErrorMessageEiiRKNSt7__cxx1112basic_stringIcSt11char_traitsIcESaIcEEE(ptr noalias sret(%"class.std::__cxx11::basic_string") align 8 %agg.result, i32 noundef %line, i32 noundef %column, ptr noundef nonnull align 8 dereferenceable(32) %description) local_unnamed_addr #2 align 2 {
entry:
  %0 = or i32 %column, %line
  %or.cond.not = icmp eq i32 %0, 0
  br i1 %or.cond.not, label %if.end, label %if.then

if.then:                                          ; preds = %entry
  %call = tail call noundef ptr @_ZNKSt7__cxx1112basic_stringIcSt11char_traitsIcESaIcEE5c_strEv(ptr noundef nonnull align 8 dereferenceable(32) %description) #17
  tail call void (ptr, ptr, ...) @_ZN4base12StringPrintfB5cxx11EPKcz(ptr sret(%"class.std::__cxx11::basic_string") align 8 %agg.result, ptr noundef nonnull @.str.1, i32 noundef %line, i32 noundef %column, ptr noundef %call)
  br label %return

if.end:                                           ; preds = %entry
  tail call void @_ZNSt7__cxx1112basic_stringIcSt11char_traitsIcESaIcEEC1ERKS4_(ptr noundef nonnull align 8 dereferenceable(32) %agg.result, ptr noundef nonnull align 8 dereferenceable(32) %description)
  br label %return

return:                                           ; preds = %if.end, %if.then
  ret void
}